target datalayout = "e-m:e-p270:32:32-p271:32:32-p272:64:64-i64:64-i128:128-f80:128-n8:16:32:64-S128"
target triple = "x86_64-pc-linux-gnu"

%class.outputStream = type { ptr, i32, i8, i32, i64, %class.TimeStamp, ptr, i64 }
%class.TimeStamp = type { i64 }
%class.fileStream = type <{ %class.outputStream, ptr, i8, [7 x i8] }>

@_ZN15ClassListWriter15_classlist_fileE = external global ptr, align 8

; Function Attrs: mustprogress nounwind uwtable
define linkonce_odr hidden noundef zeroext i1 @_ZNK10fileStream7is_openEv(ptr noundef nonnull align 8 dereferenceable(65) %0) #1 comdat align 2 {
  %2 = alloca ptr, align 8
  store ptr %0, ptr %2, align 8
  %3 = load ptr, ptr %2, align 8
  %4 = getelementptr inbounds %class.fileStream, ptr %3, i32 0, i32 1
  %5 = load ptr, ptr %4, align 8
  %6 = icmp ne ptr %5, null
  ret i1 %6
}

; Function Attrs: mustprogress nounwind uwtable
define linkonce_odr hidden noundef zeroext i1 @_ZN15ClassListWriter10is_enabledEv() #1 comdat align 2 {
  %1 = load ptr, ptr @_ZN15ClassListWriter15_classlist_fileE, align 8
  %2 = icmp ne ptr %1, null
  br i1 %2, label %3, label %6

3:                                                ; preds = %0
  %4 = load ptr, ptr @_ZN15ClassListWriter15_classlist_fileE, align 8
  %5 = call noundef zeroext i1 @_ZNK10fileStream7is_openEv(ptr noundef nonnull align 8 dereferenceable(65) %4)
  br label %6

6:                                                ; preds = %3, %0
  %7 = phi i1 [ false, %0 ], [ %5, %3 ]
  ret i1 %7
}

; Function Attrs: mustprogress nounwind uwtable
define hidden void @_ZNK13InstanceKlass24print_class_load_loggingEP15ClassLoaderDataPK11ModuleEntryPK15ClassFileStream(ptr noundef nonnull align 8 dereferenceable(464) %0, ptr noundef %1, ptr noundef %2, ptr noundef %3) #1 align 2 {
  %5 = alloca ptr, align 8
  %6 = alloca ptr, align 8
  %7 = alloca ptr, align 8
  %8 = alloca ptr, align 8
  store ptr %0, ptr %5, align 8
  store ptr %1, ptr %6, align 8
  store ptr %2, ptr %7, align 8
  store ptr %3, ptr %8, align 8
  %9 = load ptr, ptr %5, align 8
  %10 = call noundef zeroext i1 @_ZN15ClassListWriter10is_enabledEv()
  br i1 %10, label %11, label %13

11:                                               ; preds = %4
  %12 = load ptr, ptr %8, align 8
  call void @_ZN15ClassListWriter5writeEPK13InstanceKlassPK15ClassFileStream(ptr noundef %9, ptr noundef %12)
  br label %13

13:                                               ; preds = %11, %4
  %14 = load ptr, ptr %6, align 8
  %15 = load ptr, ptr %7, align 8
  %16 = load ptr, ptr %8, align 8
  call void @_ZNK13InstanceKlass23print_class_load_helperEP15ClassLoaderDataPK11ModuleEntryPK15ClassFileStream(ptr noundef nonnull align 8 dereferenceable(464) %9, ptr noundef %14, ptr noundef %15, ptr noundef %16)
  call void @_ZNK13InstanceKlass30print_class_load_cause_loggingEv(ptr noundef nonnull align 8 dereferenceable(464) %9)
  ret void
}