; Function Attrs: mustprogress nounwind uwtable
define hidden void @_ZNK13InstanceKlass24print_class_load_loggingEP15ClassLoaderDataPK11ModuleEntryPK15ClassFileStream(ptr noundef nonnull align 8 dereferenceable(464) %0, ptr noundef %1, ptr nocapture noundef readonly %2, ptr noundef %3) local_unnamed_addr #0 align 2 {
  %5 = load ptr, ptr @_ZN15ClassListWriter15_classlist_fileE, align 8
  %.not.i = icmp eq ptr %5, null
  br i1 %.not.i, label %_ZN15ClassListWriter10is_enabledEv.exit.thread, label %_ZN15ClassListWriter10is_enabledEv.exit

_ZN15ClassListWriter10is_enabledEv.exit:          ; preds = %4
  %6 = getelementptr inbounds i8, ptr %5, i64 56
  %7 = load ptr, ptr %6, align 8
  %.not = icmp eq ptr %7, null
  br i1 %.not, label %_ZN15ClassListWriter10is_enabledEv.exit.thread, label %8

8:                                                ; preds = %_ZN15ClassListWriter10is_enabledEv.exit
  tail call void @_ZN15ClassListWriter5writeEPK13InstanceKlassPK15ClassFileStream(ptr noundef nonnull %0, ptr noundef %3) #26
  br label %_ZN15ClassListWriter10is_enabledEv.exit.thread

_ZN15ClassListWriter10is_enabledEv.exit.thread:   ; preds = %4, %8, %_ZN15ClassListWriter10is_enabledEv.exit
  tail call void @_ZNK13InstanceKlass23print_class_load_helperEP15ClassLoaderDataPK11ModuleEntryPK15ClassFileStream(ptr noundef nonnull align 8 dereferenceable(464) %0, ptr noundef %1, ptr noundef %2, ptr noundef %3)
  tail call void @_ZNK13InstanceKlass30print_class_load_cause_loggingEv(ptr noundef nonnull align 8 dereferenceable(464) %0)
  ret void
}